; Function Attrs: mustprogress uwtable
define hidden void @_ZN3smt10theory_seq6mk_addEP4exprS2_(ptr noalias sret(%class.obj_ref) align 8 %agg.result, ptr noundef nonnull align 8 dereferenceable(4328) %this, ptr noundef %a, ptr noundef %b) local_unnamed_addr #3 align 2 personality ptr @__gxx_personality_v0 {
entry:
  %m_autil = getelementptr inbounds i8, ptr %this, i64 1864
  %0 = load ptr, ptr %m_autil, align 8
  %call.i = tail call noundef ptr @_ZN11ast_manager6mk_appEiiP4exprS1_(ptr noundef nonnull align 8 dereferenceable(976) %0, i32 noundef 5, i32 noundef 6, ptr noundef %a, ptr noundef %b)
  %m = getelementptr inbounds i8, ptr %this, i64 24
  %1 = load ptr, ptr %m, align 8
  store ptr %call.i, ptr %agg.result, align 8
  %m_manager.i = getelementptr inbounds i8, ptr %agg.result, i64 8
  store ptr %1, ptr %m_manager.i, align 8
  %tobool.not.i.i = icmp eq ptr %call.i, null
  br i1 %tobool.not.i.i, label %_ZN7obj_refI4expr11ast_managerEC2EPS0_RS1_.exit, label %_ZN11ast_manager7inc_refEP3ast.exit.i.i

_ZN11ast_manager7inc_refEP3ast.exit.i.i:          ; preds = %entry
  %m_ref_count.i.i.i.i = getelementptr inbounds i8, ptr %call.i, i64 8
  %2 = load i32, ptr %m_ref_count.i.i.i.i, align 4
  %inc.i.i.i.i = add i32 %2, 1
  store i32 %inc.i.i.i.i, ptr %m_ref_count.i.i.i.i, align 4
  br label %_ZN7obj_refI4expr11ast_managerEC2EPS0_RS1_.exit

_ZN7obj_refI4expr11ast_managerEC2EPS0_RS1_.exit:  ; preds = %entry, %_ZN11ast_manager7inc_refEP3ast.exit.i.i
  %m_rewrite = getelementptr inbounds i8, ptr %this, i64 1192
  invoke void @_ZN11th_rewriterclER7obj_refI4expr11ast_managerE(ptr noundef nonnull align 8 dereferenceable(16) %m_rewrite, ptr noundef nonnull align 8 dereferenceable(16) %agg.result)
          to label %nrvo.skipdtor unwind label %lpad

lpad:                                             ; preds = %_ZN7obj_refI4expr11ast_managerEC2EPS0_RS1_.exit
  %3 = landingpad { ptr, i32 }
          cleanup
  tail call void @_ZN7obj_refI4expr11ast_managerED2Ev(ptr noundef nonnull align 8 dereferenceable(16) %agg.result) #23
  resume { ptr, i32 } %3

nrvo.skipdtor:                                    ; preds = %_ZN7obj_refI4expr11ast_managerEC2EPS0_RS1_.exit
  ret void
}